; Function Attrs: nofree nosync nounwind memory(readwrite, inaccessiblemem: none) uwtable
define internal fastcc i32 @ddLeavesInt(ptr noundef captures(none) %0) unnamed_addr #6 {
  %2 = getelementptr inbounds nuw i8, ptr %0, i64 8
  %3 = load ptr, ptr %2, align 8
  %4 = ptrtoint ptr %3 to i64
  %5 = and i64 %4, 1
  %.not8 = icmp eq i64 %5, 0
  br i1 %.not8, label %.lr.ph, label %._crit_edge

.lr.ph:                                           ; preds = %1, %tailrecurse
  %6 = phi i64 [ %23, %tailrecurse ], [ %4, %1 ]
  %7 = phi ptr [ %21, %tailrecurse ], [ %2, %1 ]
  %.tr10 = phi ptr [ %19, %tailrecurse ], [ %0, %1 ]
  %accumulator.tr9 = phi i32 [ %20, %tailrecurse ], [ 0, %1 ]
  %8 = or disjoint i64 %6, 1
  %9 = inttoptr i64 %8 to ptr
  store ptr %9, ptr %7, align 8
  %10 = load i32, ptr %.tr10, align 8
  %11 = icmp eq i32 %10, 2147483647
  br i1 %11, label %._crit_edge.loopexit, label %tailrecurse

tailrecurse:                                      ; preds = %.lr.ph
  %12 = getelementptr inbounds nuw i8, ptr %.tr10, i64 16
  %13 = load ptr, ptr %12, align 8
  %14 = tail call fastcc i32 @ddLeavesInt(ptr noundef %13)
  %15 = getelementptr inbounds nuw i8, ptr %.tr10, i64 24
  %16 = load ptr, ptr %15, align 8
  %17 = ptrtoint ptr %16 to i64
  %18 = and i64 %17, -2
  %19 = inttoptr i64 %18 to ptr
  %20 = add nsw i32 %14, %accumulator.tr9
  %21 = getelementptr inbounds nuw i8, ptr %19, i64 8
  %22 = load ptr, ptr %21, align 8
  %23 = ptrtoint ptr %22 to i64
  %24 = and i64 %23, 1
  %.not = icmp eq i64 %24, 0
  br i1 %.not, label %.lr.ph, label %._crit_edge.loopexit

._crit_edge.loopexit:                             ; preds = %.lr.ph, %tailrecurse
  %accumulator.tr.lcssa.ph = phi i32 [ %20, %tailrecurse ], [ %accumulator.tr9, %.lr.ph ]
  %.0.ph = phi i32 [ 0, %tailrecurse ], [ 1, %.lr.ph ]
  %25 = add nsw i32 %.0.ph, %accumulator.tr.lcssa.ph
  br label %._crit_edge

._crit_edge:                                      ; preds = %._crit_edge.loopexit, %1
  %accumulator.ret.tr = phi i32 [ 0, %1 ], [ %25, %._crit_edge.loopexit ]
  ret i32 %accumulator.ret.tr
}